V.sidebar_plugin_action_command_notification_entry {\u000a    padding: 5px;\u000a    line-height: 20px;\u000a    border-bottom: 1px solid #ddd;\u000a}\u000a\u000a.sidebar_plugin_action_command_notification_scrollable  {\u000a    overflow-x: hidden;\u000a    overflow-y: scroll;\u000a    max-height: 306px;\u000a}\u000a
p0
.