V// source: js/app/bindings/invisible.js\u000ako.bindingHandlers.invisible = {\u000a    init: function (element, valueAccessor, allBindings, viewModel, bindingContext) {\u000a        if (!valueAccessor()) return;\u000a        ko.bindingHandlers.style.update(element, function () {\u000a            return {visibility: "hidden"};\u000a        });\u000a    }\u000a};\u000a\u000a;\u000a
p0
.