V// source: js/lib/pnotify/pnotify.mobile.min.js\u000a(function(a){"object"===typeof exports&&"undefined"!==typeof module?module.exports=a(require("jquery"),require("pnotify")):"function"===typeof define&&define.amd?define("pnotify.mobile",["jquery","pnotify"],a):a(jQuery,PNotify)})(function(a,b){});\u000a\u000a;\u000a
p0
.