V/*!\u000a * Tab drop for Bootstrap\u000a *\u000a * Copyright 2012 Stefan Petre\u000a * Licensed under the Apache License v2.0\u000a * http://www.apache.org/licenses/LICENSE-2.0\u000a *\u000a */\u000a.nav-tabs,\u000a.nav-pills {\u000a  position: relative;\u000a}\u000a
p0
.