V// source: js/app/bindings/allowbindings.js\u000ako.bindingHandlers.allowBindings = {\u000a    init: function (elem, valueAccessor) {\u000a        return {controlsDescendantBindings: !valueAccessor()};\u000a    }\u000a};\u000ako.virtualElements.allowedBindings.allowBindings = true;\u000a\u000a;\u000a
p0
.